; Function Attrs: nounwind uwtable
define internal fastcc void @ExplainIndentText(ptr noundef readonly captures(none) %0) unnamed_addr #0 {
  %2 = load ptr, ptr %0, align 8
  %3 = getelementptr inbounds nuw i8, ptr %2, i64 8
  %4 = load i32, ptr %3, align 8
  %5 = icmp eq i32 %4, 0
  br i1 %5, label %13, label %6

6:                                                ; preds = %1
  %7 = load ptr, ptr %2, align 8
  %8 = add i32 %4, -1
  %9 = sext i32 %8 to i64
  %10 = getelementptr inbounds i8, ptr %7, i64 %9
  %11 = load i8, ptr %10, align 1
  %12 = icmp eq i8 %11, 10
  br i1 %12, label %13, label %17

13:                                               ; preds = %6, %1
  %14 = getelementptr inbounds nuw i8, ptr %0, i64 28
  %15 = load i32, ptr %14, align 4
  %16 = shl i32 %15, 1
  tail call void @appendStringInfoSpaces(ptr noundef nonnull %2, i32 noundef %16) #13
  br label %17

17:                                               ; preds = %13, %6
  ret void
}